; Function Attrs: mustprogress uwtable
define ptr @res_getStringNoTrace_75(ptr nocapture noundef readonly %pResData, i32 noundef %res, ptr noundef writeonly %pLength) local_unnamed_addr #0 {
entry:
  %shr.mask = and i32 %res, -268435456
  %cmp = icmp eq i32 %shr.mask, 1610612736
  br i1 %cmp, label %if.then, label %if.else30

if.then:                                          ; preds = %entry
  %and = and i32 %res, 268435455
  %poolStringIndexLimit = getelementptr inbounds i8, ptr %pResData, i64 48
  %0 = load i32, ptr %poolStringIndexLimit, align 8
  %cmp1 = icmp slt i32 %and, %0
  %sub = select i1 %cmp1, i32 0, i32 %0
  %sub.sink = sub i32 %and, %sub
  %.sink.in.v = select i1 %cmp1, i64 40, i64 16
  %.sink.in = getelementptr inbounds i8, ptr %pResData, i64 %.sink.in.v
  %.sink = load ptr, ptr %.sink.in, align 8
  %idx.ext4 = zext i32 %sub.sink to i64
  %add.ptr5 = getelementptr inbounds i16, ptr %.sink, i64 %idx.ext4
  %1 = load i16, ptr %add.ptr5, align 2
  %conv = zext i16 %1 to i32
  %and6 = and i32 %conv, 64512
  %cmp7 = icmp eq i32 %and6, 56320
  br i1 %cmp7, label %if.else9, label %if.then8

if.then8:                                         ; preds = %if.then
  %call = tail call i32 @u_strlen_75(ptr noundef nonnull %add.ptr5)
  br label %if.end39

if.else9:                                         ; preds = %if.then
  %cmp10 = icmp ult i16 %1, -8209
  br i1 %cmp10, label %if.then11, label %if.else13

if.then11:                                        ; preds = %if.else9
  %and12 = and i32 %conv, 1023
  %incdec.ptr = getelementptr inbounds i8, ptr %add.ptr5, i64 2
  br label %if.end39

if.else13:                                        ; preds = %if.else9
  %cmp14 = icmp ult i16 %1, -8193
  br i1 %cmp14, label %if.then15, label %if.else19

if.then15:                                        ; preds = %if.else13
  %sub16 = shl nuw i32 %conv, 16
  %shl = add nsw i32 %sub16, 537985024
  %arrayidx = getelementptr inbounds i8, ptr %add.ptr5, i64 2
  %2 = load i16, ptr %arrayidx, align 2
  %conv17 = zext i16 %2 to i32
  %or = or disjoint i32 %shl, %conv17
  %add.ptr18 = getelementptr inbounds i8, ptr %add.ptr5, i64 4
  br label %if.end39

if.else19:                                        ; preds = %if.else13
  %arrayidx20 = getelementptr inbounds i8, ptr %add.ptr5, i64 2
  %3 = load i16, ptr %arrayidx20, align 2
  %conv21 = zext i16 %3 to i32
  %shl22 = shl nuw i32 %conv21, 16
  %arrayidx23 = getelementptr inbounds i8, ptr %add.ptr5, i64 4
  %4 = load i16, ptr %arrayidx23, align 2
  %conv24 = zext i16 %4 to i32
  %or25 = or disjoint i32 %shl22, %conv24
  %add.ptr26 = getelementptr inbounds i8, ptr %add.ptr5, i64 6
  br label %if.end39

if.else30:                                        ; preds = %entry
  %cmp31 = icmp ult i32 %res, 268435456
  br i1 %cmp31, label %if.then32, label %if.end39

if.then32:                                        ; preds = %if.else30
  %cmp33 = icmp eq i32 %res, 0
  br i1 %cmp33, label %cond.end, label %cond.false

cond.false:                                       ; preds = %if.then32
  %pRoot = getelementptr inbounds i8, ptr %pResData, i64 8
  %5 = load ptr, ptr %pRoot, align 8
  %idx.ext34 = zext nneg i32 %res to i64
  %add.ptr35 = getelementptr inbounds i32, ptr %5, i64 %idx.ext34
  br label %cond.end

cond.end:                                         ; preds = %if.then32, %cond.false
  %cond = phi ptr [ %add.ptr35, %cond.false ], [ @_ZL12gEmptyString, %if.then32 ]
  %incdec.ptr36 = getelementptr inbounds i8, ptr %cond, i64 4
  %6 = load i32, ptr %cond, align 4
  br label %if.end39

if.end39:                                         ; preds = %if.else30, %cond.end, %if.then8, %if.then15, %if.else19, %if.then11
  %length.0 = phi i32 [ %and12, %if.then11 ], [ %or, %if.then15 ], [ %or25, %if.else19 ], [ %call, %if.then8 ], [ %6, %cond.end ], [ 0, %if.else30 ]
  %p.1 = phi ptr [ %incdec.ptr, %if.then11 ], [ %add.ptr18, %if.then15 ], [ %add.ptr26, %if.else19 ], [ %add.ptr5, %if.then8 ], [ %incdec.ptr36, %cond.end ], [ null, %if.else30 ]
  %tobool.not = icmp eq ptr %pLength, null
  br i1 %tobool.not, label %if.end41, label %if.then40

if.then40:                                        ; preds = %if.end39
  store i32 %length.0, ptr %pLength, align 4
  br label %if.end41

if.end41:                                         ; preds = %if.then40, %if.end39
  ret ptr %p.1
}